; Function Attrs: mustprogress uwtable
define hidden noundef ptr @_ZN7datalog12aig_exporter13get_latch_varEjRK10ref_vectorI4expr11ast_managerE(ptr noundef nonnull align 8 dereferenceable(624) %this, i32 noundef %i, ptr nocapture noundef nonnull readonly align 8 dereferenceable(16) %vars) local_unnamed_addr #3 align 2 {
entry:
  tail call void @_ZN7datalog12aig_exporter13mk_latch_varsEj(ptr noundef nonnull align 8 dereferenceable(624) %this, i32 noundef %i)
  %m_nodes.i = getelementptr inbounds i8, ptr %vars, i64 8
  %0 = load ptr, ptr %m_nodes.i, align 8
  %idxprom.i.i = zext i32 %i to i64
  %arrayidx.i.i = getelementptr inbounds ptr, ptr %0, i64 %idxprom.i.i
  %1 = load ptr, ptr %arrayidx.i.i, align 8
  ret ptr %1
}